target datalayout = "e-m:e-p270:32:32-p271:32:32-p272:64:64-i64:64-i128:128-f80:128-n8:16:32:64-S128"
target triple = "x86_64-unknown-linux-gnu"

%struct.QTailQLink = type { ptr, ptr }
%struct.MSGUID = type { i32, i16, i16, [8 x i8] }
%struct.BDRVVHDXState = type <{ %struct.CoMutex, i32, [4 x i8], [2 x ptr], %struct.VHDXRegionTableHeader, %struct.VHDXRegionTableEntry, %struct.VHDXRegionTableEntry, %struct.VHDXMetadataTableHeader, %struct.VHDXMetadataEntries, %struct.VHDXFileParameters, [2 x i8], i32, i32, i32, i32, [4 x i8], i64, i32, i32, i64, i32, i32, i32, [4 x i8], ptr, i64, i8, %struct.MSGUID, [7 x i8], %struct.VHDXLogEntries, %struct.VHDXParentLocatorHeader, [4 x i8], ptr, ptr, i8, [7 x i8], %struct.anon.1 }>
%struct.CoMutex = type { i32, ptr, %struct.anon.0, %struct.anon.0, i32, i32, ptr }
%struct.anon.0 = type { ptr }
%struct.VHDXRegionTableHeader = type { i32, i32, i32, i32 }
%struct.VHDXRegionTableEntry = type { %struct.MSGUID, i64, i32, i32 }
%struct.VHDXMetadataTableHeader = type { i64, i16, i16, [5 x i32] }
%struct.VHDXMetadataEntries = type <{ %struct.VHDXMetadataTableEntry, %struct.VHDXMetadataTableEntry, %struct.VHDXMetadataTableEntry, %struct.VHDXMetadataTableEntry, %struct.VHDXMetadataTableEntry, %struct.VHDXMetadataTableEntry, i16 }>
%struct.VHDXMetadataTableEntry = type { %struct.MSGUID, i32, i32, i32, i32 }
%struct.VHDXFileParameters = type { i32, i32 }
%struct.VHDXLogEntries = type { i64, i64, i32, i32, ptr, ptr, i64, i32 }
%struct.VHDXParentLocatorHeader = type { %struct.MSGUID, i16, i16 }
%struct.anon.1 = type { ptr }
%struct.BlockDriverState = type { i32, i8, i8, i8, i8, i8, ptr, ptr, ptr, %struct.anon.2, i8, [4096 x i8], [4096 x i8], [4096 x i8], [16 x i8], ptr, [4096 x i8], %struct.BlockLimits, i32, i32, i32, i32, [32 x i8], %union.anon.3, %union.anon.4, %union.anon.5, i32, [16 x %struct.anon.6], ptr, %struct.anon.7, ptr, ptr, %struct.anon.8, ptr, ptr, i32, ptr, i64, i64, %struct.QemuMutex, %struct.anon.9, %struct.Stat64, i32, i32, i32, i32, i32, i32, %struct.QemuMutex, %struct.anon.10, %struct.CoQueue, i8, i32, i8, %struct.CoMutex, ptr, ptr }
%struct.anon.2 = type { ptr }
%struct.BlockLimits = type { i32, i64, i32, i64, i32, i32, i32, i64, i32, i64, i64, i32, i8, i32, i32, i32, i32, i32, i32, i32 }
%union.anon.3 = type { %struct.QTailQLink }
%union.anon.4 = type { %struct.QTailQLink }
%union.anon.5 = type { %struct.QTailQLink }
%struct.anon.6 = type { ptr }
%struct.anon.7 = type { ptr }
%struct.anon.8 = type { ptr }
%struct.anon.9 = type { ptr }
%struct.Stat64 = type { i64 }
%struct.QemuMutex = type { %union.pthread_mutex_t, i8 }
%union.pthread_mutex_t = type { %struct.__pthread_mutex_s }
%struct.__pthread_mutex_s = type { i32, i32, i32, i32, i32, i16, i16, %struct.__pthread_internal_list }
%struct.__pthread_internal_list = type { ptr, ptr }
%struct.anon.10 = type { ptr }
%struct.CoQueue = type { %struct.anon.11 }
%struct.anon.11 = type { ptr, ptr }
%struct.BdrvChild = type { ptr, ptr, ptr, i32, ptr, i64, i64, i8, i8, %struct.anon.12, %struct.anon.13 }
%struct.anon.12 = type { ptr, ptr }
%struct.anon.13 = type { ptr, ptr }

; Function Attrs: nounwind sspstrong uwtable
define internal i32 @vhdx_allocate_block(ptr noundef %bs, ptr noundef %s, ptr noundef %new_offset, ptr noundef %need_zero) #0 {
entry:
  %retval = alloca i32, align 4
  %bs.addr = alloca ptr, align 8
  %s.addr = alloca ptr, align 8
  %new_offset.addr = alloca ptr, align 8
  %need_zero.addr = alloca ptr, align 8
  %current_len = alloca i64, align 8
  %ret = alloca i32, align 4
  store ptr %bs, ptr %bs.addr, align 8
  store ptr %s, ptr %s.addr, align 8
  store ptr %new_offset, ptr %new_offset.addr, align 8
  store ptr %need_zero, ptr %need_zero.addr, align 8
  %0 = load ptr, ptr %bs.addr, align 8
  %file = getelementptr inbounds %struct.BlockDriverState, ptr %0, i32 0, i32 31
  %1 = load ptr, ptr %file, align 8
  %bs1 = getelementptr inbounds %struct.BdrvChild, ptr %1, i32 0, i32 0
  %2 = load ptr, ptr %bs1, align 8
  %call = call i64 @bdrv_co_getlength(ptr noundef %2)
  store i64 %call, ptr %current_len, align 8
  %3 = load i64, ptr %current_len, align 8
  %cmp = icmp slt i64 %3, 0
  br i1 %cmp, label %if.then, label %if.end

if.then:                                          ; preds = %entry
  %4 = load i64, ptr %current_len, align 8
  %conv = trunc i64 %4 to i32
  store i32 %conv, ptr %retval, align 4
  br label %return

if.end:                                           ; preds = %entry
  %5 = load i64, ptr %current_len, align 8
  %6 = load ptr, ptr %new_offset.addr, align 8
  store i64 %5, ptr %6, align 8
  %7 = load ptr, ptr %new_offset.addr, align 8
  %8 = load i64, ptr %7, align 8
  %add = add i64 %8, 1048576
  %sub = sub i64 %add, 1
  %and = and i64 %sub, -1048576
  %9 = load ptr, ptr %new_offset.addr, align 8
  store i64 %and, ptr %9, align 8
  %10 = load ptr, ptr %new_offset.addr, align 8
  %11 = load i64, ptr %10, align 8
  %cmp2 = icmp ugt i64 %11, 9223372036854775807
  br i1 %cmp2, label %if.then4, label %if.end5

if.then4:                                         ; preds = %if.end
  store i32 -22, ptr %retval, align 4
  br label %return

if.end5:                                          ; preds = %if.end
  %12 = load ptr, ptr %need_zero.addr, align 8
  %13 = load i8, ptr %12, align 1
  %tobool = trunc i8 %13 to i1
  br i1 %tobool, label %if.then6, label %if.end15

if.then6:                                         ; preds = %if.end5
  %14 = load ptr, ptr %bs.addr, align 8
  %file7 = getelementptr inbounds %struct.BlockDriverState, ptr %14, i32 0, i32 31
  %15 = load ptr, ptr %file7, align 8
  %16 = load ptr, ptr %new_offset.addr, align 8
  %17 = load i64, ptr %16, align 8
  %18 = load ptr, ptr %s.addr, align 8
  %block_size = getelementptr inbounds %struct.BDRVVHDXState, ptr %18, i32 0, i32 11
  %19 = load i32, ptr %block_size, align 4
  %conv8 = zext i32 %19 to i64
  %add9 = add i64 %17, %conv8
  %call10 = call i32 @bdrv_co_truncate(ptr noundef %15, i64 noundef %add9, i1 noundef zeroext false, i32 noundef 0, i32 noundef 2, ptr noundef null)
  store i32 %call10, ptr %ret, align 4
  %20 = load i32, ptr %ret, align 4
  %cmp11 = icmp ne i32 %20, -95
  br i1 %cmp11, label %if.then13, label %if.end14

if.then13:                                        ; preds = %if.then6
  %21 = load ptr, ptr %need_zero.addr, align 8
  store i8 0, ptr %21, align 1
  %22 = load i32, ptr %ret, align 4
  store i32 %22, ptr %retval, align 4
  br label %return

if.end14:                                         ; preds = %if.then6
  br label %if.end15

if.end15:                                         ; preds = %if.end14, %if.end5
  %23 = load ptr, ptr %bs.addr, align 8
  %file16 = getelementptr inbounds %struct.BlockDriverState, ptr %23, i32 0, i32 31
  %24 = load ptr, ptr %file16, align 8
  %25 = load ptr, ptr %new_offset.addr, align 8
  %26 = load i64, ptr %25, align 8
  %27 = load ptr, ptr %s.addr, align 8
  %block_size17 = getelementptr inbounds %struct.BDRVVHDXState, ptr %27, i32 0, i32 11
  %28 = load i32, ptr %block_size17, align 4
  %conv18 = zext i32 %28 to i64
  %add19 = add i64 %26, %conv18
  %call20 = call i32 @bdrv_co_truncate(ptr noundef %24, i64 noundef %add19, i1 noundef zeroext false, i32 noundef 0, i32 noundef 0, ptr noundef null)
  store i32 %call20, ptr %retval, align 4
  br label %return

return:                                           ; preds = %if.end15, %if.then13, %if.then4, %if.then
  %29 = load i32, ptr %retval, align 4
  ret i32 %29
}