; Function Attrs: nounwind sspstrong uwtable
define internal i32 @vhdx_allocate_block(ptr noundef readonly captures(none) %bs, ptr noundef readonly captures(none) %s, ptr noundef captures(none) %new_offset, ptr noundef captures(none) %need_zero) #0 {
entry:
  %file = getelementptr inbounds nuw i8, ptr %bs, i64 16840
  %0 = load ptr, ptr %file, align 8
  %1 = load ptr, ptr %0, align 8
  %call = tail call i64 @bdrv_co_getlength(ptr noundef %1) #17
  %cmp = icmp slt i64 %call, 0
  br i1 %cmp, label %if.then, label %if.end

if.then:                                          ; preds = %entry
  %conv = trunc i64 %call to i32
  br label %return

if.end:                                           ; preds = %entry
  %sub = add nuw i64 %call, 1048575
  %and = and i64 %sub, -1048576
  store i64 %and, ptr %new_offset, align 8
  %cmp2 = icmp slt i64 %sub, 0
  br i1 %cmp2, label %return, label %if.end5

if.end5:                                          ; preds = %if.end
  %2 = load i8, ptr %need_zero, align 1
  %tobool = trunc i8 %2 to i1
  br i1 %tobool, label %if.then6, label %if.end15

if.then6:                                         ; preds = %if.end5
  %3 = load ptr, ptr %file, align 8
  %block_size = getelementptr inbounds nuw i8, ptr %s, i64 388
  %4 = load i32, ptr %block_size, align 4
  %conv8 = zext i32 %4 to i64
  %add9 = add nuw i64 %and, %conv8
  %call10 = tail call i32 @bdrv_co_truncate(ptr noundef %3, i64 noundef %add9, i1 noundef zeroext false, i32 noundef 0, i32 noundef 2, ptr noundef null) #17
  %cmp11.not = icmp eq i32 %call10, -95
  br i1 %cmp11.not, label %if.then6.if.end15_crit_edge, label %if.then13

if.then6.if.end15_crit_edge:                      ; preds = %if.then6
  %.pre = load i64, ptr %new_offset, align 8
  br label %if.end15

if.then13:                                        ; preds = %if.then6
  store i8 0, ptr %need_zero, align 1
  br label %return

if.end15:                                         ; preds = %if.then6.if.end15_crit_edge, %if.end5
  %5 = phi i64 [ %.pre, %if.then6.if.end15_crit_edge ], [ %and, %if.end5 ]
  %6 = load ptr, ptr %file, align 8
  %block_size17 = getelementptr inbounds nuw i8, ptr %s, i64 388
  %7 = load i32, ptr %block_size17, align 4
  %conv18 = zext i32 %7 to i64
  %add19 = add i64 %5, %conv18
  %call20 = tail call i32 @bdrv_co_truncate(ptr noundef %6, i64 noundef %add19, i1 noundef zeroext false, i32 noundef 0, i32 noundef 0, ptr noundef null) #17
  br label %return

return:                                           ; preds = %if.end, %if.end15, %if.then13, %if.then
  %retval.0 = phi i32 [ %conv, %if.then ], [ %call10, %if.then13 ], [ %call20, %if.end15 ], [ -22, %if.end ]
  ret i32 %retval.0
}